target datalayout = "e-m:e-p270:32:32-p271:32:32-p272:64:64-i64:64-i128:128-f80:128-n8:16:32:64-S128"
target triple = "x86_64-pc-linux-gnu"

%struct.AVProbeData = type { ptr, ptr, i32, ptr }
%struct.AVFormatContext = type { ptr, ptr, ptr, ptr, ptr, i32, i32, ptr, i32, ptr, i32, ptr, ptr, i64, i64, i64, i32, i32, i32, i64, i64, ptr, i32, i32, ptr, i32, i32, i32, i32, ptr, i64, i32, i32, %struct.AVIOInterruptCB, i32, i32, i32, i32, i64, i32, i32, i32, i32, i32, i32, i32, i32, i32, i32, i32, i32, i64, i32, i32, i32, i32, i32, ptr, ptr, ptr, ptr, i32, ptr, ptr, ptr, ptr, i32, ptr, ptr, i64, ptr, ptr, ptr, i64 }
%struct.AVIOInterruptCB = type { ptr, ptr }
%struct.HLSContext = type { ptr, ptr, i32, ptr, i32, ptr, i32, ptr, i64, i32, i32, i32, i32, i64, i64, ptr, ptr, ptr, ptr, ptr, i32, i32, i32, i32, i32, i32, ptr, %struct.HLSCryptoContext }
%struct.HLSCryptoContext = type { ptr, [16 x i8], [16 x i8] }
%struct.playlist = type { [4096 x i8], %struct.FFIOContext, ptr, ptr, i32, ptr, i32, ptr, i32, ptr, ptr, i32, ptr, i32, i32, i32, i64, i64, i32, i64, i32, ptr, i32, i32, i64, i64, i32, i64, i64, ptr, ptr, i32, i32, i32, [4096 x i8], [16 x i8], i32, i64, i64, ptr, i32, ptr, i32, i32, ptr, %struct.HLSAudioSetupInfo, i64, i32, i32, i32, ptr, i32, ptr, i32 }
%struct.FFIOContext = type { %struct.AVIOContext, ptr, i32, i32, i64, i64, i64, i64, i32, i32, i32, i64 }
%struct.AVIOContext = type { ptr, ptr, i32, ptr, ptr, ptr, ptr, ptr, ptr, i64, i32, i32, i32, i32, i32, i64, ptr, ptr, ptr, ptr, i32, i32, ptr, ptr, ptr, i32, ptr, i64, i64 }
%struct.HLSAudioSetupInfo = type { i32, i32, i16, i8, i8, [10 x i8] }
%struct.variant = type { i32, i32, ptr, [64 x i8], [64 x i8], [64 x i8] }
%struct.AVStream = type { ptr, i32, i32, ptr, ptr, %struct.AVRational, i64, i64, i64, i32, i32, %struct.AVRational, ptr, %struct.AVRational, %struct.AVPacket, i32, %struct.AVRational, i32 }
%struct.AVPacket = type { ptr, i64, i64, ptr, i32, i32, i32, ptr, i32, i64, i64, ptr, ptr, %struct.AVRational }
%struct.AVRational = type { i32, i32 }
%struct.FFStream = type { %struct.AVStream, ptr, i32, ptr, i32, ptr, i32, %struct.anon, i32, i32, %struct.FFFrac, ptr, ptr, i32, i32, i64, i64, i32, i32, i32, i64, i64, i64, i32, i64, i64, i64, i32, i32, [17 x i64], [17 x i8], [17 x i64], i64, i8, i8, %struct.AVRational, %struct.AVProbeData, ptr, i64, i32, i32, i32, ptr, i32, i32, i64, i64, ptr, %struct.AVRational }
%struct.anon = type { ptr, i32 }
%struct.FFFrac = type { i64, i64, i64 }

@.str.45 = private unnamed_addr constant [16 x i8] c"variant_bitrate\00", align 1

; Function Attrs: alwaysinline nounwind uwtable
define internal ptr @ffstream(ptr noundef %0) #12 {
  %2 = alloca ptr, align 8
  store ptr %0, ptr %2, align 8, !tbaa !138
  %3 = load ptr, ptr %2, align 8, !tbaa !138
  ret ptr %3
}

; Function Attrs: nounwind uwtable
define internal i32 @set_stream_info_from_input_stream(ptr noundef %0, ptr noundef %1, ptr noundef %2) #0 {
  %4 = alloca i32, align 4
  %5 = alloca ptr, align 8
  %6 = alloca ptr, align 8
  %7 = alloca ptr, align 8
  %8 = alloca i32, align 4
  %9 = alloca i32, align 4
  store ptr %0, ptr %5, align 8, !tbaa !138
  store ptr %1, ptr %6, align 8, !tbaa !54
  store ptr %2, ptr %7, align 8, !tbaa !138
  call void @llvm.lifetime.start.p0(i64 4, ptr %8) #15
  %10 = load ptr, ptr %5, align 8, !tbaa !138
  %11 = getelementptr inbounds nuw %struct.AVStream, ptr %10, i32 0, i32 3
  %12 = load ptr, ptr %11, align 8, !tbaa !161
  %13 = load ptr, ptr %7, align 8, !tbaa !138
  %14 = getelementptr inbounds nuw %struct.AVStream, ptr %13, i32 0, i32 3
  %15 = load ptr, ptr %14, align 8, !tbaa !161
  %16 = call i32 @avcodec_parameters_copy(ptr noundef %12, ptr noundef %15)
  store i32 %16, ptr %8, align 4, !tbaa !14
  %17 = load i32, ptr %8, align 4, !tbaa !14
  %18 = icmp slt i32 %17, 0
  br i1 %18, label %19, label %21

19:                                               ; preds = %3
  %20 = load i32, ptr %8, align 4, !tbaa !14
  store i32 %20, ptr %4, align 4
  store i32 1, ptr %9, align 4
  br label %56

21:                                               ; preds = %3
  %22 = load ptr, ptr %6, align 8, !tbaa !54
  %23 = getelementptr inbounds nuw %struct.playlist, ptr %22, i32 0, i32 36
  %24 = load i32, ptr %23, align 4, !tbaa !118
  %25 = icmp ne i32 %24, 0
  br i1 %25, label %26, label %28

26:                                               ; preds = %21
  %27 = load ptr, ptr %5, align 8, !tbaa !138
  call void @avpriv_set_pts_info(ptr noundef %27, i32 noundef 33, i32 noundef 1, i32 noundef 90000)
  br label %41

28:                                               ; preds = %21
  %29 = load ptr, ptr %5, align 8, !tbaa !138
  %30 = load ptr, ptr %7, align 8, !tbaa !138
  %31 = getelementptr inbounds nuw %struct.AVStream, ptr %30, i32 0, i32 17
  %32 = load i32, ptr %31, align 4, !tbaa !317
  %33 = load ptr, ptr %7, align 8, !tbaa !138
  %34 = getelementptr inbounds nuw %struct.AVStream, ptr %33, i32 0, i32 5
  %35 = getelementptr inbounds nuw %struct.AVRational, ptr %34, i32 0, i32 0
  %36 = load i32, ptr %35, align 8, !tbaa !318
  %37 = load ptr, ptr %7, align 8, !tbaa !138
  %38 = getelementptr inbounds nuw %struct.AVStream, ptr %37, i32 0, i32 5
  %39 = getelementptr inbounds nuw %struct.AVRational, ptr %38, i32 0, i32 1
  %40 = load i32, ptr %39, align 4, !tbaa !174
  call void @avpriv_set_pts_info(ptr noundef %29, i32 noundef %32, i32 noundef %36, i32 noundef %40)
  br label %41

41:                                               ; preds = %28, %26
  %42 = load ptr, ptr %7, align 8, !tbaa !138
  %43 = getelementptr inbounds nuw %struct.AVStream, ptr %42, i32 0, i32 9
  %44 = load i32, ptr %43, align 8, !tbaa !235
  %45 = load ptr, ptr %5, align 8, !tbaa !138
  %46 = getelementptr inbounds nuw %struct.AVStream, ptr %45, i32 0, i32 9
  store i32 %44, ptr %46, align 8, !tbaa !235
  %47 = load ptr, ptr %5, align 8, !tbaa !138
  %48 = getelementptr inbounds nuw %struct.AVStream, ptr %47, i32 0, i32 12
  %49 = load ptr, ptr %7, align 8, !tbaa !138
  %50 = getelementptr inbounds nuw %struct.AVStream, ptr %49, i32 0, i32 12
  %51 = load ptr, ptr %50, align 8, !tbaa !319
  %52 = call i32 @av_dict_copy(ptr noundef %48, ptr noundef %51, i32 noundef 0)
  %53 = load ptr, ptr %5, align 8, !tbaa !138
  %54 = call ptr @ffstream(ptr noundef %53)
  %55 = getelementptr inbounds nuw %struct.FFStream, ptr %54, i32 0, i32 8
  store i32 1, ptr %55, align 8, !tbaa !320
  store i32 0, ptr %4, align 4
  store i32 1, ptr %9, align 4
  br label %56

56:                                               ; preds = %41, %19
  call void @llvm.lifetime.end.p0(i64 4, ptr %8) #15
  %57 = load i32, ptr %4, align 4
  ret i32 %57
}

; Function Attrs: nounwind uwtable
define internal void @add_stream_to_programs(ptr noundef %0, ptr noundef %1, ptr noundef %2) #0 {
  %4 = alloca ptr, align 8
  %5 = alloca ptr, align 8
  %6 = alloca ptr, align 8
  %7 = alloca ptr, align 8
  %8 = alloca i32, align 4
  %9 = alloca i32, align 4
  %10 = alloca i32, align 4
  %11 = alloca ptr, align 8
  store ptr %0, ptr %4, align 8, !tbaa !16
  store ptr %1, ptr %5, align 8, !tbaa !54
  store ptr %2, ptr %6, align 8, !tbaa !138
  call void @llvm.lifetime.start.p0(i64 8, ptr %7) #15
  %12 = load ptr, ptr %4, align 8, !tbaa !16
  %13 = getelementptr inbounds nuw %struct.AVFormatContext, ptr %12, i32 0, i32 3
  %14 = load ptr, ptr %13, align 8, !tbaa !18
  store ptr %14, ptr %7, align 8, !tbaa !33
  call void @llvm.lifetime.start.p0(i64 4, ptr %8) #15
  call void @llvm.lifetime.start.p0(i64 4, ptr %9) #15
  call void @llvm.lifetime.start.p0(i64 4, ptr %10) #15
  store i32 -1, ptr %10, align 4, !tbaa !14
  store i32 0, ptr %8, align 4, !tbaa !14
  br label %15

15:                                               ; preds = %71, %3
  %16 = load i32, ptr %8, align 4, !tbaa !14
  %17 = load ptr, ptr %7, align 8, !tbaa !33
  %18 = getelementptr inbounds nuw %struct.HLSContext, ptr %17, i32 0, i32 2
  %19 = load i32, ptr %18, align 8, !tbaa !51
  %20 = icmp slt i32 %16, %19
  br i1 %20, label %21, label %74

21:                                               ; preds = %15
  call void @llvm.lifetime.start.p0(i64 8, ptr %11) #15
  %22 = load ptr, ptr %7, align 8, !tbaa !33
  %23 = getelementptr inbounds nuw %struct.HLSContext, ptr %22, i32 0, i32 3
  %24 = load ptr, ptr %23, align 8, !tbaa !70
  %25 = load i32, ptr %8, align 4, !tbaa !14
  %26 = sext i32 %25 to i64
  %27 = getelementptr inbounds ptr, ptr %24, i64 %26
  %28 = load ptr, ptr %27, align 8, !tbaa !71
  store ptr %28, ptr %11, align 8, !tbaa !71
  store i32 0, ptr %9, align 4, !tbaa !14
  br label %29

29:                                               ; preds = %67, %21
  %30 = load i32, ptr %9, align 4, !tbaa !14
  %31 = load ptr, ptr %11, align 8, !tbaa !71
  %32 = getelementptr inbounds nuw %struct.variant, ptr %31, i32 0, i32 1
  %33 = load i32, ptr %32, align 4, !tbaa !205
  %34 = icmp slt i32 %30, %33
  br i1 %34, label %35, label %70

35:                                               ; preds = %29
  %36 = load ptr, ptr %11, align 8, !tbaa !71
  %37 = getelementptr inbounds nuw %struct.variant, ptr %36, i32 0, i32 2
  %38 = load ptr, ptr %37, align 8, !tbaa !73
  %39 = load i32, ptr %9, align 4, !tbaa !14
  %40 = sext i32 %39 to i64
  %41 = getelementptr inbounds ptr, ptr %38, i64 %40
  %42 = load ptr, ptr %41, align 8, !tbaa !54
  %43 = load ptr, ptr %5, align 8, !tbaa !54
  %44 = icmp ne ptr %42, %43
  br i1 %44, label %45, label %46

45:                                               ; preds = %35
  br label %67

46:                                               ; preds = %35
  %47 = load ptr, ptr %4, align 8, !tbaa !16
  %48 = load i32, ptr %8, align 4, !tbaa !14
  %49 = load ptr, ptr %6, align 8, !tbaa !138
  %50 = getelementptr inbounds nuw %struct.AVStream, ptr %49, i32 0, i32 1
  %51 = load i32, ptr %50, align 8, !tbaa !173
  call void @av_program_add_stream_index(ptr noundef %47, i32 noundef %48, i32 noundef %51)
  %52 = load i32, ptr %10, align 4, !tbaa !14
  %53 = icmp slt i32 %52, 0
  br i1 %53, label %54, label %58

54:                                               ; preds = %46
  %55 = load ptr, ptr %11, align 8, !tbaa !71
  %56 = getelementptr inbounds nuw %struct.variant, ptr %55, i32 0, i32 0
  %57 = load i32, ptr %56, align 8, !tbaa !87
  store i32 %57, ptr %10, align 4, !tbaa !14
  br label %66

58:                                               ; preds = %46
  %59 = load i32, ptr %10, align 4, !tbaa !14
  %60 = load ptr, ptr %11, align 8, !tbaa !71
  %61 = getelementptr inbounds nuw %struct.variant, ptr %60, i32 0, i32 0
  %62 = load i32, ptr %61, align 8, !tbaa !87
  %63 = icmp ne i32 %59, %62
  br i1 %63, label %64, label %65

64:                                               ; preds = %58
  store i32 -1, ptr %10, align 4, !tbaa !14
  br label %65

65:                                               ; preds = %64, %58
  br label %66

66:                                               ; preds = %65, %54
  br label %67

67:                                               ; preds = %66, %45
  %68 = load i32, ptr %9, align 4, !tbaa !14
  %69 = add nsw i32 %68, 1
  store i32 %69, ptr %9, align 4, !tbaa !14
  br label %29, !llvm.loop !315

70:                                               ; preds = %29
  call void @llvm.lifetime.end.p0(i64 8, ptr %11) #15
  br label %71

71:                                               ; preds = %70
  %72 = load i32, ptr %8, align 4, !tbaa !14
  %73 = add nsw i32 %72, 1
  store i32 %73, ptr %8, align 4, !tbaa !14
  br label %15, !llvm.loop !316

74:                                               ; preds = %15
  %75 = load i32, ptr %10, align 4, !tbaa !14
  %76 = icmp sge i32 %75, 0
  br i1 %76, label %77, label %83

77:                                               ; preds = %74
  %78 = load ptr, ptr %6, align 8, !tbaa !138
  %79 = getelementptr inbounds nuw %struct.AVStream, ptr %78, i32 0, i32 12
  %80 = load i32, ptr %10, align 4, !tbaa !14
  %81 = sext i32 %80 to i64
  %82 = call i32 @av_dict_set_int(ptr noundef %79, ptr noundef @.str.45, i64 noundef %81, i32 noundef 0)
  br label %83

83:                                               ; preds = %77, %74
  call void @llvm.lifetime.end.p0(i64 4, ptr %10) #15
  call void @llvm.lifetime.end.p0(i64 4, ptr %9) #15
  call void @llvm.lifetime.end.p0(i64 4, ptr %8) #15
  call void @llvm.lifetime.end.p0(i64 8, ptr %7) #15
  ret void
}

; Function Attrs: nounwind uwtable
define internal i32 @update_streams_from_subdemuxer(ptr noundef %0, ptr noundef %1) #0 {
  %3 = alloca i32, align 4
  %4 = alloca ptr, align 8
  %5 = alloca ptr, align 8
  %6 = alloca i32, align 4
  %7 = alloca i32, align 4
  %8 = alloca ptr, align 8
  %9 = alloca ptr, align 8
  %10 = alloca i32, align 4
  %11 = alloca ptr, align 8
  %12 = alloca ptr, align 8
  store ptr %0, ptr %4, align 8, !tbaa !16
  store ptr %1, ptr %5, align 8, !tbaa !54
  call void @llvm.lifetime.start.p0(i64 4, ptr %6) #15
  br label %13

13:                                               ; preds = %71, %2
  %14 = load ptr, ptr %5, align 8, !tbaa !54
  %15 = getelementptr inbounds nuw %struct.playlist, ptr %14, i32 0, i32 13
  %16 = load i32, ptr %15, align 8, !tbaa !142
  %17 = load ptr, ptr %5, align 8, !tbaa !54
  %18 = getelementptr inbounds nuw %struct.playlist, ptr %17, i32 0, i32 9
  %19 = load ptr, ptr %18, align 8, !tbaa !93
  %20 = getelementptr inbounds nuw %struct.AVFormatContext, ptr %19, i32 0, i32 6
  %21 = load i32, ptr %20, align 4, !tbaa !135
  %22 = icmp ult i32 %16, %21
  br i1 %22, label %23, label %72

23:                                               ; preds = %13
  call void @llvm.lifetime.start.p0(i64 4, ptr %7) #15
  %24 = load ptr, ptr %5, align 8, !tbaa !54
  %25 = getelementptr inbounds nuw %struct.playlist, ptr %24, i32 0, i32 13
  %26 = load i32, ptr %25, align 8, !tbaa !142
  store i32 %26, ptr %7, align 4, !tbaa !14
  call void @llvm.lifetime.start.p0(i64 8, ptr %8) #15
  %27 = load ptr, ptr %4, align 8, !tbaa !16
  %28 = call ptr @avformat_new_stream(ptr noundef %27, ptr noundef null)
  store ptr %28, ptr %8, align 8, !tbaa !138
  call void @llvm.lifetime.start.p0(i64 8, ptr %9) #15
  %29 = load ptr, ptr %5, align 8, !tbaa !54
  %30 = getelementptr inbounds nuw %struct.playlist, ptr %29, i32 0, i32 9
  %31 = load ptr, ptr %30, align 8, !tbaa !93
  %32 = getelementptr inbounds nuw %struct.AVFormatContext, ptr %31, i32 0, i32 7
  %33 = load ptr, ptr %32, align 8, !tbaa !137
  %34 = load i32, ptr %7, align 4, !tbaa !14
  %35 = sext i32 %34 to i64
  %36 = getelementptr inbounds ptr, ptr %33, i64 %35
  %37 = load ptr, ptr %36, align 8, !tbaa !138
  store ptr %37, ptr %9, align 8, !tbaa !138
  %38 = load ptr, ptr %8, align 8, !tbaa !138
  %39 = icmp ne ptr %38, null
  br i1 %39, label %41, label %40

40:                                               ; preds = %23
  store i32 -12, ptr %3, align 4
  store i32 1, ptr %10, align 4
  br label %69

41:                                               ; preds = %23
  %42 = load ptr, ptr %5, align 8, !tbaa !54
  %43 = getelementptr inbounds nuw %struct.playlist, ptr %42, i32 0, i32 8
  %44 = load i32, ptr %43, align 8, !tbaa !94
  %45 = load ptr, ptr %8, align 8, !tbaa !138
  %46 = getelementptr inbounds nuw %struct.AVStream, ptr %45, i32 0, i32 2
  store i32 %44, ptr %46, align 4, !tbaa !230
  br label %47

47:                                               ; preds = %41
  call void @llvm.lifetime.start.p0(i64 8, ptr %11) #15
  %48 = load ptr, ptr %5, align 8, !tbaa !54
  %49 = getelementptr inbounds nuw %struct.playlist, ptr %48, i32 0, i32 12
  store ptr %49, ptr %11, align 8, !tbaa !231
  call void @llvm.lifetime.start.p0(i64 8, ptr %12) #15
  %50 = load ptr, ptr %8, align 8, !tbaa !138
  store ptr %50, ptr %12, align 8, !tbaa !138
  %51 = load ptr, ptr %11, align 8, !tbaa !231
  %52 = load ptr, ptr %5, align 8, !tbaa !54
  %53 = getelementptr inbounds nuw %struct.playlist, ptr %52, i32 0, i32 13
  %54 = load ptr, ptr %12, align 8, !tbaa !138
  call void @av_dynarray_add(ptr noundef %51, ptr noundef %53, ptr noundef %54)
  call void @llvm.lifetime.end.p0(i64 8, ptr %12) #15
  call void @llvm.lifetime.end.p0(i64 8, ptr %11) #15
  br label %55

55:                                               ; preds = %47
  br label %56

56:                                               ; preds = %55
  %57 = load ptr, ptr %4, align 8, !tbaa !16
  %58 = load ptr, ptr %5, align 8, !tbaa !54
  %59 = load ptr, ptr %8, align 8, !tbaa !138
  call void @add_stream_to_programs(ptr noundef %57, ptr noundef %58, ptr noundef %59)
  %60 = load ptr, ptr %8, align 8, !tbaa !138
  %61 = load ptr, ptr %5, align 8, !tbaa !54
  %62 = load ptr, ptr %9, align 8, !tbaa !138
  %63 = call i32 @set_stream_info_from_input_stream(ptr noundef %60, ptr noundef %61, ptr noundef %62)
  store i32 %63, ptr %6, align 4, !tbaa !14
  %64 = load i32, ptr %6, align 4, !tbaa !14
  %65 = icmp slt i32 %64, 0
  br i1 %65, label %66, label %68

66:                                               ; preds = %56
  %67 = load i32, ptr %6, align 4, !tbaa !14
  store i32 %67, ptr %3, align 4
  store i32 1, ptr %10, align 4
  br label %69

68:                                               ; preds = %56
  store i32 0, ptr %10, align 4
  br label %69

69:                                               ; preds = %68, %66, %40
  call void @llvm.lifetime.end.p0(i64 8, ptr %9) #15
  call void @llvm.lifetime.end.p0(i64 8, ptr %8) #15
  call void @llvm.lifetime.end.p0(i64 4, ptr %7) #15
  %70 = load i32, ptr %10, align 4
  switch i32 %70, label %73 [
    i32 0, label %71
  ]

71:                                               ; preds = %69
  br label %13, !llvm.loop !233

72:                                               ; preds = %13
  store i32 0, ptr %3, align 4
  store i32 1, ptr %10, align 4
  br label %73

73:                                               ; preds = %72, %69
  call void @llvm.lifetime.end.p0(i64 4, ptr %6) #15
  %74 = load i32, ptr %3, align 4
  ret i32 %74
}