; Function Attrs: nounwind uwtable
define internal fastcc range(i32 -2147483648, 1) i32 @update_streams_from_subdemuxer(ptr noundef %0, ptr noundef %1) unnamed_addr #0 {
  %3 = getelementptr inbounds nuw i8, ptr %1, i64 4464
  %4 = getelementptr inbounds nuw i8, ptr %1, i64 4432
  %5 = load i32, ptr %3, align 8, !tbaa !136
  %6 = load ptr, ptr %4, align 8, !tbaa !92
  %7 = getelementptr inbounds nuw i8, ptr %6, i64 44
  %8 = load i32, ptr %7, align 4, !tbaa !129
  %9 = icmp ult i32 %5, %8
  br i1 %9, label %.lr.ph, label %.thread

.lr.ph:                                           ; preds = %2
  %10 = getelementptr inbounds nuw i8, ptr %1, i64 4424
  %11 = getelementptr inbounds nuw i8, ptr %1, i64 4456
  %12 = getelementptr inbounds nuw i8, ptr %0, i64 24
  %13 = getelementptr inbounds nuw i8, ptr %1, i64 8716
  br label %14

14:                                               ; preds = %.lr.ph, %79
  %15 = phi i32 [ %5, %.lr.ph ], [ %88, %79 ]
  %16 = tail call ptr @avformat_new_stream(ptr noundef %0, ptr noundef null) #16
  %.not = icmp eq ptr %16, null
  br i1 %.not, label %.thread, label %17

17:                                               ; preds = %14
  %18 = load ptr, ptr %4, align 8, !tbaa !92
  %19 = getelementptr inbounds nuw i8, ptr %18, i64 48
  %20 = load ptr, ptr %19, align 8, !tbaa !131
  %21 = sext i32 %15 to i64
  %22 = getelementptr inbounds ptr, ptr %20, i64 %21
  %23 = load ptr, ptr %22, align 8, !tbaa !132
  %24 = load i32, ptr %10, align 8, !tbaa !93
  %25 = getelementptr inbounds nuw i8, ptr %16, i64 12
  store i32 %24, ptr %25, align 4, !tbaa !277
  tail call void @av_dynarray_add(ptr noundef nonnull %11, ptr noundef nonnull %3, ptr noundef nonnull %16) #16
  %26 = load ptr, ptr %12, align 8, !tbaa !13
  %27 = getelementptr inbounds nuw i8, ptr %26, i64 16
  %28 = load i32, ptr %27, align 8, !tbaa !44
  %29 = icmp sgt i32 %28, 0
  br i1 %29, label %.lr.ph29.i, label %add_stream_to_programs.exit

.lr.ph29.i:                                       ; preds = %17
  %30 = getelementptr inbounds nuw i8, ptr %26, i64 24
  %31 = getelementptr inbounds nuw i8, ptr %16, i64 8
  br label %32

32:                                               ; preds = %._crit_edge.i, %.lr.ph29.i
  %33 = phi i32 [ %28, %.lr.ph29.i ], [ %55, %._crit_edge.i ]
  %indvars.iv33.i = phi i64 [ 0, %.lr.ph29.i ], [ %indvars.iv.next34.i, %._crit_edge.i ]
  %.02126.i = phi i32 [ -1, %.lr.ph29.i ], [ %.1.lcssa.i, %._crit_edge.i ]
  %34 = load ptr, ptr %30, align 8, !tbaa !63
  %35 = getelementptr inbounds nuw ptr, ptr %34, i64 %indvars.iv33.i
  %36 = load ptr, ptr %35, align 8, !tbaa !64
  %37 = getelementptr inbounds nuw i8, ptr %36, i64 4
  %38 = load i32, ptr %37, align 4, !tbaa !240
  %39 = icmp sgt i32 %38, 0
  br i1 %39, label %.lr.ph.i, label %._crit_edge.i

.lr.ph.i:                                         ; preds = %32
  %40 = getelementptr inbounds nuw i8, ptr %36, i64 8
  %41 = trunc nuw nsw i64 %indvars.iv33.i to i32
  br label %42

42:                                               ; preds = %51, %.lr.ph.i
  %indvars.iv.i = phi i64 [ 0, %.lr.ph.i ], [ %indvars.iv.next.i, %51 ]
  %.125.i = phi i32 [ %.02126.i, %.lr.ph.i ], [ %.2.i, %51 ]
  %43 = load ptr, ptr %40, align 8, !tbaa !66
  %44 = getelementptr inbounds nuw ptr, ptr %43, i64 %indvars.iv.i
  %45 = load ptr, ptr %44, align 8, !tbaa !47
  %.not.i = icmp eq ptr %45, %1
  br i1 %.not.i, label %46, label %51

46:                                               ; preds = %42
  %47 = load i32, ptr %31, align 8, !tbaa !157
  tail call void @av_program_add_stream_index(ptr noundef %0, i32 noundef %41, i32 noundef %47) #16
  %48 = icmp slt i32 %.125.i, 0
  %49 = load i32, ptr %36, align 8, !tbaa !86
  br i1 %48, label %51, label %50

50:                                               ; preds = %46
  %.not23.i = icmp eq i32 %.125.i, %49
  %spec.store.select.i = select i1 %.not23.i, i32 %.125.i, i32 -1
  br label %51

51:                                               ; preds = %50, %46, %42
  %.2.i = phi i32 [ %.125.i, %42 ], [ %spec.store.select.i, %50 ], [ %49, %46 ]
  %indvars.iv.next.i = add nuw nsw i64 %indvars.iv.i, 1
  %52 = load i32, ptr %37, align 4, !tbaa !240
  %53 = sext i32 %52 to i64
  %54 = icmp slt i64 %indvars.iv.next.i, %53
  br i1 %54, label %42, label %._crit_edge.loopexit.i, !llvm.loop !278

._crit_edge.loopexit.i:                           ; preds = %51
  %.pre.i = load i32, ptr %27, align 8, !tbaa !44
  br label %._crit_edge.i

._crit_edge.i:                                    ; preds = %._crit_edge.loopexit.i, %32
  %55 = phi i32 [ %33, %32 ], [ %.pre.i, %._crit_edge.loopexit.i ]
  %.1.lcssa.i = phi i32 [ %.02126.i, %32 ], [ %.2.i, %._crit_edge.loopexit.i ]
  %indvars.iv.next34.i = add nuw nsw i64 %indvars.iv33.i, 1
  %56 = sext i32 %55 to i64
  %57 = icmp slt i64 %indvars.iv.next34.i, %56
  br i1 %57, label %32, label %._crit_edge30.i, !llvm.loop !279

._crit_edge30.i:                                  ; preds = %._crit_edge.i
  %58 = icmp sgt i32 %.1.lcssa.i, -1
  br i1 %58, label %59, label %add_stream_to_programs.exit

59:                                               ; preds = %._crit_edge30.i
  %60 = getelementptr inbounds nuw i8, ptr %16, i64 80
  %61 = zext nneg i32 %.1.lcssa.i to i64
  %62 = tail call i32 @av_dict_set_int(ptr noundef nonnull %60, ptr noundef nonnull @.str.45, i64 noundef %61, i32 noundef 0) #16
  br label %add_stream_to_programs.exit

add_stream_to_programs.exit:                      ; preds = %17, %._crit_edge30.i, %59
  %63 = getelementptr inbounds nuw i8, ptr %16, i64 16
  %64 = load ptr, ptr %63, align 8, !tbaa !147
  %65 = getelementptr inbounds nuw i8, ptr %23, i64 16
  %66 = load ptr, ptr %65, align 8, !tbaa !147
  %67 = tail call i32 @avcodec_parameters_copy(ptr noundef %64, ptr noundef %66) #16
  %68 = icmp slt i32 %67, 0
  br i1 %68, label %.thread, label %69

69:                                               ; preds = %add_stream_to_programs.exit
  %70 = load i32, ptr %13, align 4, !tbaa !113
  %.not.i27 = icmp eq i32 %70, 0
  br i1 %.not.i27, label %72, label %71

71:                                               ; preds = %69
  tail call void @avpriv_set_pts_info(ptr noundef nonnull %16, i32 noundef 33, i32 noundef 1, i32 noundef 90000) #16
  br label %79

72:                                               ; preds = %69
  %73 = getelementptr inbounds nuw i8, ptr %23, i64 212
  %74 = load i32, ptr %73, align 4, !tbaa !190
  %75 = getelementptr inbounds nuw i8, ptr %23, i64 32
  %76 = load i32, ptr %75, align 8, !tbaa !191
  %77 = getelementptr inbounds nuw i8, ptr %23, i64 36
  %78 = load i32, ptr %77, align 4, !tbaa !192
  tail call void @avpriv_set_pts_info(ptr noundef nonnull %16, i32 noundef %74, i32 noundef %76, i32 noundef %78) #16
  br label %79

79:                                               ; preds = %71, %72
  %80 = getelementptr inbounds nuw i8, ptr %23, i64 64
  %81 = load i32, ptr %80, align 8, !tbaa !152
  %82 = getelementptr inbounds nuw i8, ptr %16, i64 64
  store i32 %81, ptr %82, align 8, !tbaa !152
  %83 = getelementptr inbounds nuw i8, ptr %16, i64 80
  %84 = getelementptr inbounds nuw i8, ptr %23, i64 80
  %85 = load ptr, ptr %84, align 8, !tbaa !193
  %86 = tail call i32 @av_dict_copy(ptr noundef nonnull %83, ptr noundef %85, i32 noundef 0) #16
  %87 = getelementptr inbounds nuw i8, ptr %16, i64 280
  store i32 1, ptr %87, align 8, !tbaa !194
  %88 = load i32, ptr %3, align 8, !tbaa !136
  %89 = load ptr, ptr %4, align 8, !tbaa !92
  %90 = getelementptr inbounds nuw i8, ptr %89, i64 44
  %91 = load i32, ptr %90, align 4, !tbaa !129
  %92 = icmp ult i32 %88, %91
  br i1 %92, label %14, label %.thread

.thread:                                          ; preds = %79, %14, %add_stream_to_programs.exit, %2
  %.2 = phi i32 [ 0, %2 ], [ %67, %add_stream_to_programs.exit ], [ -12, %14 ], [ 0, %79 ]
  ret i32 %.2
}